; Function Attrs: mustprogress uwtable
define hidden void @_ZN17algebraic_numbers7manager5resetERNS_4anumE(ptr noundef nonnull readonly align 8 captures(none) dereferenceable(17) %0, ptr noundef nonnull align 8 captures(none) dereferenceable(8) %1) local_unnamed_addr #3 align 2 {
  %3 = load ptr, ptr %0, align 8, !tbaa !12
  %4 = load ptr, ptr %1, align 8, !tbaa !66
  %5 = icmp eq ptr %4, null
  br i1 %5, label %_ZN17algebraic_numbers7manager3imp5resetERNS_4anumE.exit, label %6

6:                                                ; preds = %2
  %7 = ptrtoint ptr %4 to i64
  %8 = and i64 %7, 7
  %9 = icmp eq i64 %8, 0
  br i1 %9, label %10, label %16

10:                                               ; preds = %6
  %11 = getelementptr inbounds nuw i8, ptr %3, i64 24
  %12 = load ptr, ptr %11, align 8, !tbaa !65
  tail call void @_ZN11mpz_managerILb0EE3delEPS0_R3mpz(ptr noundef nonnull align 8 dereferenceable(728) %12, ptr noundef nonnull align 8 dereferenceable(32) %4)
  %13 = getelementptr inbounds nuw i8, ptr %4, i64 16
  tail call void @_ZN11mpz_managerILb0EE3delEPS0_R3mpz(ptr noundef nonnull align 8 dereferenceable(728) %12, ptr noundef nonnull align 8 dereferenceable(16) %13)
  %14 = getelementptr inbounds nuw i8, ptr %3, i64 16
  %15 = load ptr, ptr %14, align 8, !tbaa !68
  tail call void @_ZN22small_object_allocator10deallocateEmPv(ptr noundef nonnull align 8 dereferenceable(520) %15, i64 noundef 32, ptr noundef nonnull %4)
  br label %19

16:                                               ; preds = %6
  %17 = and i64 %7, -8
  %18 = inttoptr i64 %17 to ptr
  tail call void @_ZN17algebraic_numbers7manager3imp3delEPNS_14algebraic_cellE(ptr noundef nonnull align 8 dereferenceable(936) %3, ptr noundef %18)
  br label %19

19:                                               ; preds = %16, %10
  store ptr null, ptr %1, align 8, !tbaa !66
  br label %_ZN17algebraic_numbers7manager3imp5resetERNS_4anumE.exit

_ZN17algebraic_numbers7manager3imp5resetERNS_4anumE.exit: ; preds = %2, %19
  ret void
}